; Function Attrs: mustprogress nounwind uwtable
define dso_local noundef i32 @napi_get_value_uint32(ptr noundef %env, ptr noundef %value, ptr noundef writeonly %result) local_unnamed_addr #3 {
entry:
  %cmp = icmp eq ptr %env, null
  br i1 %cmp, label %return, label %do.end

do.end:                                           ; preds = %entry
  %module_api_version.i = getelementptr inbounds i8, ptr %env, i64 184
  %0 = load i32, ptr %module_api_version.i, align 8
  %cmp.i = icmp eq i32 %0, 2147483647
  br i1 %cmp.i, label %land.lhs.true.i, label %_ZN10napi_env__13CheckGCAccessEv.exit

land.lhs.true.i:                                  ; preds = %do.end
  %in_gc_finalizer.i = getelementptr inbounds i8, ptr %env, i64 188
  %1 = load i8, ptr %in_gc_finalizer.i, align 4
  %2 = and i8 %1, 1
  %tobool.not.i = icmp eq i8 %2, 0
  br i1 %tobool.not.i, label %_ZN10napi_env__13CheckGCAccessEv.exit, label %if.then.i12

if.then.i12:                                      ; preds = %land.lhs.true.i
  tail call void @_ZN6v8impl12OnFatalErrorEPKcS1_(ptr noundef null, ptr noundef nonnull @.str.41) #28
  unreachable

_ZN10napi_env__13CheckGCAccessEv.exit:            ; preds = %do.end, %land.lhs.true.i
  %cmp4.not = icmp eq ptr %value, null
  br i1 %cmp4.not, label %if.then5, label %do.body8

if.then5:                                         ; preds = %_ZN10napi_env__13CheckGCAccessEv.exit
  %error_code1.i = getelementptr inbounds i8, ptr %env, i64 156
  store i32 1, ptr %error_code1.i, align 4
  %engine_error_code3.i = getelementptr inbounds i8, ptr %env, i64 152
  store i32 0, ptr %engine_error_code3.i, align 8
  %engine_reserved5.i = getelementptr inbounds i8, ptr %env, i64 144
  store ptr null, ptr %engine_reserved5.i, align 8
  br label %return

do.body8:                                         ; preds = %_ZN10napi_env__13CheckGCAccessEv.exit
  %cmp9.not = icmp eq ptr %result, null
  br i1 %cmp9.not, label %if.then10, label %do.end13

if.then10:                                        ; preds = %do.body8
  %error_code1.i13 = getelementptr inbounds i8, ptr %env, i64 156
  store i32 1, ptr %error_code1.i13, align 4
  %engine_error_code3.i14 = getelementptr inbounds i8, ptr %env, i64 152
  store i32 0, ptr %engine_error_code3.i14, align 8
  %engine_reserved5.i15 = getelementptr inbounds i8, ptr %env, i64 144
  store ptr null, ptr %engine_reserved5.i15, align 8
  br label %return

do.end13:                                         ; preds = %do.body8
  %call18 = tail call noundef zeroext i1 @_ZNK2v85Value8IsUint32Ev(ptr noundef nonnull align 1 dereferenceable(1) %value) #24
  br i1 %call18, label %if.then19, label %do.body26

if.then19:                                        ; preds = %do.end13
  %call25 = tail call noundef i32 @_ZNK2v86Uint325ValueEv(ptr noundef nonnull align 1 dereferenceable(1) %value) #24
  br label %if.end40

do.body26:                                        ; preds = %do.end13
  %call28 = tail call noundef zeroext i1 @_ZNK2v85Value8IsNumberEv(ptr noundef nonnull align 1 dereferenceable(1) %value) #24
  br i1 %call28, label %do.end32, label %if.then29

if.then29:                                        ; preds = %do.body26
  %error_code1.i16 = getelementptr inbounds i8, ptr %env, i64 156
  store i32 6, ptr %error_code1.i16, align 4
  %engine_error_code3.i17 = getelementptr inbounds i8, ptr %env, i64 152
  store i32 0, ptr %engine_error_code3.i17, align 8
  %engine_reserved5.i18 = getelementptr inbounds i8, ptr %env, i64 144
  store ptr null, ptr %engine_reserved5.i18, align 8
  br label %return

do.end32:                                         ; preds = %do.body26
  %call38 = tail call i64 @_ZNK2v85Value11Uint32ValueENS_5LocalINS_7ContextEEE(ptr noundef nonnull align 1 dereferenceable(1) %value, ptr null) #24
  %ref.tmp33.sroa.29.0.extract.shift = lshr i64 %call38, 32
  %ref.tmp33.sroa.29.0.extract.trunc = trunc i64 %ref.tmp33.sroa.29.0.extract.shift to i32
  %3 = and i64 %call38, 1
  %tobool.i.not = icmp eq i64 %3, 0
  br i1 %tobool.i.not, label %if.then.i, label %if.end40

if.then.i:                                        ; preds = %do.end32
  tail call void @_ZN2v812api_internal17FromJustIsNothingEv() #24
  br label %if.end40

if.end40:                                         ; preds = %do.end32, %if.then.i, %if.then19
  %storemerge = phi i32 [ %call25, %if.then19 ], [ %ref.tmp33.sroa.29.0.extract.trunc, %if.then.i ], [ %ref.tmp33.sroa.29.0.extract.trunc, %do.end32 ]
  store i32 %storemerge, ptr %result, align 4
  %last_error.i = getelementptr inbounds i8, ptr %env, i64 136
  tail call void @llvm.memset.p0.i64(ptr noundef nonnull align 8 dereferenceable(24) %last_error.i, i8 0, i64 24, i1 false)
  br label %return

return:                                           ; preds = %entry, %if.end40, %if.then29, %if.then10, %if.then5
  %retval.0 = phi i32 [ 0, %if.end40 ], [ 6, %if.then29 ], [ 1, %if.then10 ], [ 1, %if.then5 ], [ 1, %entry ]
  ret i32 %retval.0
}